; ModuleID = '27/1961.c'
source_filename = "27/1961.c"
target datalayout = "e-m:e-p270:32:32-p271:32:32-p272:64:64-i64:64-f80:128-n8:16:32:64-S128"
target triple = "x86_64-pc-linux-gnu"

@.str = private unnamed_addr constant [3 x i8] c"%d\00", align 1
@.str.1 = private unnamed_addr constant [12 x i8] c"%lf %lf %lf\00", align 1
@.str.2 = private unnamed_addr constant [12 x i8] c"x1=x2=%.5f\0A\00", align 1
@.str.3 = private unnamed_addr constant [17 x i8] c"x1=%.5f;x2=%.5f\0A\00", align 1
@.str.4 = private unnamed_addr constant [29 x i8] c"x1=%.5f+%.5fi;x2=%.5f-%.5fi\0A\00", align 1

; Function Attrs: noinline nounwind uwtable
define dso_local i32 @main() #0 {
  %1 = alloca i32, align 4
  %2 = alloca i32, align 4
  %3 = alloca i32, align 4
  %4 = alloca i8*, align 8
  %5 = alloca i64, align 8
  %6 = alloca double, align 8
  %7 = alloca double, align 8
  %8 = alloca i64, align 8
  %9 = alloca i64, align 8
  store i32 0, i32* %1, align 4
  %10 = call i32 (i8*, ...) @__isoc99_scanf(i8* getelementptr inbounds ([3 x i8], [3 x i8]* @.str, i64 0, i64 0), i32* %3)
  %11 = load i32, i32* %3, align 4
  %12 = zext i32 %11 to i64
  %13 = call i8* @llvm.stacksave()
  store i8* %13, i8** %4, align 8
  %14 = alloca double, i64 %12, align 16
  store i64 %12, i64* %5, align 8
  %15 = load i32, i32* %3, align 4
  %16 = zext i32 %15 to i64
  %17 = alloca double, i64 %16, align 16
  store i64 %16, i64* %8, align 8
  %18 = load i32, i32* %3, align 4
  %19 = zext i32 %18 to i64
  %20 = alloca double, i64 %19, align 16
  store i64 %19, i64* %9, align 8
  store i32 0, i32* %2, align 4
  br label %21

21:                                               ; preds = %70, %0
  %22 = load i32, i32* %2, align 4
  %23 = load i32, i32* %3, align 4
  %24 = icmp slt i32 %22, %23
  br i1 %24, label %25, label %73

25:                                               ; preds = %21
  %26 = load i32, i32* %2, align 4
  %27 = sext i32 %26 to i64
  %28 = getelementptr inbounds double, double* %14, i64 %27
  %29 = call i32 (i8*, ...) @__isoc99_scanf(i8* getelementptr inbounds ([12 x i8], [12 x i8]* @.str.1, i64 0, i64 0), double* %28, double* %6, double* %7)
  %30 = load double, double* %6, align 8
  %31 = load double, double* %6, align 8
  %32 = fmul double %30, %31
  %33 = load i32, i32* %2, align 4
  %34 = sext i32 %33 to i64
  %35 = getelementptr inbounds double, double* %14, i64 %34
  %36 = load double, double* %35, align 8
  %37 = fmul double 4.000000e+00, %36
  %38 = load double, double* %7, align 8
  %39 = fmul double %37, %38
  %40 = fsub double %32, %39
  %41 = load i32, i32* %2, align 4
  %42 = sext i32 %41 to i64
  %43 = getelementptr inbounds double, double* %20, i64 %42
  store double %40, double* %43, align 8
  %44 = load double, double* %6, align 8
  %45 = fcmp oeq double %44, 0.000000e+00
  br i1 %45, label %46, label %57

46:                                               ; preds = %25
  %47 = load double, double* %6, align 8
  %48 = load i32, i32* %2, align 4
  %49 = sext i32 %48 to i64
  %50 = getelementptr inbounds double, double* %14, i64 %49
  %51 = load double, double* %50, align 8
  %52 = fmul double 2.000000e+00, %51
  %53 = fdiv double %47, %52
  %54 = load i32, i32* %2, align 4
  %55 = sext i32 %54 to i64
  %56 = getelementptr inbounds double, double* %17, i64 %55
  store double %53, double* %56, align 8
  br label %69

57:                                               ; preds = %25
  %58 = load double, double* %6, align 8
  %59 = fneg double %58
  %60 = load i32, i32* %2, align 4
  %61 = sext i32 %60 to i64
  %62 = getelementptr inbounds double, double* %14, i64 %61
  %63 = load double, double* %62, align 8
  %64 = fmul double 2.000000e+00, %63
  %65 = fdiv double %59, %64
  %66 = load i32, i32* %2, align 4
  %67 = sext i32 %66 to i64
  %68 = getelementptr inbounds double, double* %17, i64 %67
  store double %65, double* %68, align 8
  br label %69

69:                                               ; preds = %57, %46
  br label %70

70:                                               ; preds = %69
  %71 = load i32, i32* %2, align 4
  %72 = add nsw i32 %71, 1
  store i32 %72, i32* %2, align 4
  br label %21

73:                                               ; preds = %21
  store i32 0, i32* %2, align 4
  br label %74

74:                                               ; preds = %165, %73
  %75 = load i32, i32* %2, align 4
  %76 = load i32, i32* %3, align 4
  %77 = icmp slt i32 %75, %76
  br i1 %77, label %78, label %168

78:                                               ; preds = %74
  %79 = load i32, i32* %2, align 4
  %80 = sext i32 %79 to i64
  %81 = getelementptr inbounds double, double* %20, i64 %80
  %82 = load double, double* %81, align 8
  %83 = fcmp oeq double %82, 0.000000e+00
  br i1 %83, label %84, label %90

84:                                               ; preds = %78
  %85 = load i32, i32* %2, align 4
  %86 = sext i32 %85 to i64
  %87 = getelementptr inbounds double, double* %17, i64 %86
  %88 = load double, double* %87, align 8
  %89 = call i32 (i8*, ...) @printf(i8* getelementptr inbounds ([12 x i8], [12 x i8]* @.str.2, i64 0, i64 0), double %88)
  br label %164

90:                                               ; preds = %78
  %91 = load i32, i32* %2, align 4
  %92 = sext i32 %91 to i64
  %93 = getelementptr inbounds double, double* %20, i64 %92
  %94 = load double, double* %93, align 8
  %95 = fcmp ogt double %94, 0.000000e+00
  br i1 %95, label %96, label %130

96:                                               ; preds = %90
  %97 = load i32, i32* %2, align 4
  %98 = sext i32 %97 to i64
  %99 = getelementptr inbounds double, double* %20, i64 %98
  %100 = load double, double* %99, align 8
  %101 = call double @sqrt(double %100) #2
  %102 = load i32, i32* %2, align 4
  %103 = sext i32 %102 to i64
  %104 = getelementptr inbounds double, double* %14, i64 %103
  %105 = load double, double* %104, align 8
  %106 = fmul double 2.000000e+00, %105
  %107 = fdiv double %101, %106
  %108 = load i32, i32* %2, align 4
  %109 = sext i32 %108 to i64
  %110 = getelementptr inbounds double, double* %20, i64 %109
  store double %107, double* %110, align 8
  %111 = load i32, i32* %2, align 4
  %112 = sext i32 %111 to i64
  %113 = getelementptr inbounds double, double* %17, i64 %112
  %114 = load double, double* %113, align 8
  %115 = load i32, i32* %2, align 4
  %116 = sext i32 %115 to i64
  %117 = getelementptr inbounds double, double* %20, i64 %116
  %118 = load double, double* %117, align 8
  %119 = fadd double %114, %118
  %120 = load i32, i32* %2, align 4
  %121 = sext i32 %120 to i64
  %122 = getelementptr inbounds double, double* %17, i64 %121
  %123 = load double, double* %122, align 8
  %124 = load i32, i32* %2, align 4
  %125 = sext i32 %124 to i64
  %126 = getelementptr inbounds double, double* %20, i64 %125
  %127 = load double, double* %126, align 8
  %128 = fsub double %123, %127
  %129 = call i32 (i8*, ...) @printf(i8* getelementptr inbounds ([17 x i8], [17 x i8]* @.str.3, i64 0, i64 0), double %119, double %128)
  br label %163

130:                                              ; preds = %90
  %131 = load i32, i32* %2, align 4
  %132 = sext i32 %131 to i64
  %133 = getelementptr inbounds double, double* %20, i64 %132
  %134 = load double, double* %133, align 8
  %135 = fneg double %134
  %136 = call double @sqrt(double %135) #2
  %137 = load i32, i32* %2, align 4
  %138 = sext i32 %137 to i64
  %139 = getelementptr inbounds double, double* %14, i64 %138
  %140 = load double, double* %139, align 8
  %141 = fmul double 2.000000e+00, %140
  %142 = fdiv double %136, %141
  %143 = load i32, i32* %2, align 4
  %144 = sext i32 %143 to i64
  %145 = getelementptr inbounds double, double* %20, i64 %144
  store double %142, double* %145, align 8
  %146 = load i32, i32* %2, align 4
  %147 = sext i32 %146 to i64
  %148 = getelementptr inbounds double, double* %17, i64 %147
  %149 = load double, double* %148, align 8
  %150 = load i32, i32* %2, align 4
  %151 = sext i32 %150 to i64
  %152 = getelementptr inbounds double, double* %20, i64 %151
  %153 = load double, double* %152, align 8
  %154 = load i32, i32* %2, align 4
  %155 = sext i32 %154 to i64
  %156 = getelementptr inbounds double, double* %17, i64 %155
  %157 = load double, double* %156, align 8
  %158 = load i32, i32* %2, align 4
  %159 = sext i32 %158 to i64
  %160 = getelementptr inbounds double, double* %20, i64 %159
  %161 = load double, double* %160, align 8
  %162 = call i32 (i8*, ...) @printf(i8* getelementptr inbounds ([29 x i8], [29 x i8]* @.str.4, i64 0, i64 0), double %149, double %153, double %157, double %161)
  br label %163

163:                                              ; preds = %130, %96
  br label %164

164:                                              ; preds = %163, %84
  br label %165

165:                                              ; preds = %164
  %166 = load i32, i32* %2, align 4
  %167 = add nsw i32 %166, 1
  store i32 %167, i32* %2, align 4
  br label %74

168:                                              ; preds = %74
  %169 = load i8*, i8** %4, align 8
  call void @llvm.stackrestore(i8* %169)
  %170 = load i32, i32* %1, align 4
  ret i32 %170
}

declare dso_local i32 @__isoc99_scanf(i8*, ...) #1

; Function Attrs: nounwind
declare i8* @llvm.stacksave() #2

declare dso_local i32 @printf(i8*, ...) #1

; Function Attrs: nounwind
declare dso_local double @sqrt(double) #3

; Function Attrs: nounwind
declare void @llvm.stackrestore(i8*) #2


!llvm.module.flags = !{!0}
!llvm.ident = !{!1}

!0 = !{i32 1, !"wchar_size", i32 4}
!1 = !{!"clang version 10.0.0-4ubuntu1 "}
